target datalayout = "e-m:e-p270:32:32-p271:32:32-p272:64:64-i64:64-i128:128-f80:128-n8:16:32:64-S128"
target triple = "x86_64-pc-linux-gnu"

@.str = private unnamed_addr constant [3 x i8] c"\0D\0A\00", align 1
@.str.1 = private unnamed_addr constant [29 x i8] c"Expected \\r\\n, got: %02x%02x\00", align 1
@error = internal global [1044 x i8] zeroinitializer, align 16
@.str.2 = private unnamed_addr constant [13 x i8] c"0x%16llx: %s\00", align 1
@epos = internal global i64 0, align 8
@line = internal global i64 1, align 8
@.str.4 = private unnamed_addr constant [42 x i8] c"Expected to read %ld bytes, got %ld bytes\00", align 1
@.str.5 = private unnamed_addr constant [73 x i8] c"Expected to read string of %ld bytes, which is not in the suitable range\00", align 1

; Function Attrs: nounwind uwtable
define dso_local i32 @consumeNewline(ptr noundef %0) #0 {
  %2 = alloca i32, align 4
  %3 = alloca ptr, align 8
  %4 = alloca [1024 x i8], align 16
  store ptr %0, ptr %3, align 8, !tbaa !5
  %5 = load ptr, ptr %3, align 8, !tbaa !5
  %6 = call i32 @strncmp(ptr noundef %5, ptr noundef @.str, i64 noundef 2) #9
  %7 = icmp ne i32 %6, 0
  br i1 %7, label %8, label %22

8:                                                ; preds = %1
  call void @llvm.lifetime.start.p0(i64 1024, ptr %4) #10
  %9 = getelementptr inbounds [1024 x i8], ptr %4, i64 0, i64 0
  %10 = load ptr, ptr %3, align 8, !tbaa !5
  %11 = getelementptr inbounds i8, ptr %10, i64 0
  %12 = load i8, ptr %11, align 1, !tbaa !10
  %13 = sext i8 %12 to i32
  %14 = load ptr, ptr %3, align 8, !tbaa !5
  %15 = getelementptr inbounds i8, ptr %14, i64 1
  %16 = load i8, ptr %15, align 1, !tbaa !10
  %17 = sext i8 %16 to i32
  %18 = call i32 (ptr, i64, ptr, ...) @snprintf(ptr noundef %9, i64 noundef 1024, ptr noundef @.str.1, i32 noundef %13, i32 noundef %17) #10
  %19 = load i64, ptr @epos, align 8, !tbaa !11
  %20 = getelementptr inbounds [1024 x i8], ptr %4, i64 0, i64 0
  %21 = call i32 (ptr, i64, ptr, ...) @snprintf(ptr noundef @error, i64 noundef 1044, ptr noundef @.str.2, i64 noundef %19, ptr noundef %20) #10
  call void @llvm.lifetime.end.p0(i64 1024, ptr %4) #10
  store i32 0, ptr %2, align 4
  br label %25

22:                                               ; preds = %1
  %23 = load i64, ptr @line, align 8, !tbaa !13
  %24 = add nsw i64 %23, 1
  store i64 %24, ptr @line, align 8, !tbaa !13
  store i32 1, ptr %2, align 4
  br label %25

25:                                               ; preds = %22, %8
  %26 = load i32, ptr %2, align 4
  ret i32 %26
}

; Function Attrs: nounwind uwtable
define dso_local i32 @readBytes(ptr noundef %0, ptr noundef %1, i64 noundef %2) #0 {
  %4 = alloca i32, align 4
  %5 = alloca ptr, align 8
  %6 = alloca ptr, align 8
  %7 = alloca i64, align 8
  %8 = alloca i64, align 8
  %9 = alloca [1024 x i8], align 16
  %10 = alloca i32, align 4
  store ptr %0, ptr %5, align 8, !tbaa !15
  store ptr %1, ptr %6, align 8, !tbaa !5
  store i64 %2, ptr %7, align 8, !tbaa !11
  call void @llvm.lifetime.start.p0(i64 8, ptr %8) #10
  %11 = load ptr, ptr %5, align 8, !tbaa !15
  %12 = call i64 @ftello64(ptr noundef %11)
  store i64 %12, ptr @epos, align 8, !tbaa !11
  %13 = load ptr, ptr %6, align 8, !tbaa !5
  %14 = load i64, ptr %7, align 8, !tbaa !11
  %15 = load ptr, ptr %5, align 8, !tbaa !15
  %16 = call i64 @fread(ptr noundef %13, i64 noundef 1, i64 noundef %14, ptr noundef %15)
  store i64 %16, ptr %8, align 8, !tbaa !11
  %17 = load i64, ptr %8, align 8, !tbaa !11
  %18 = load i64, ptr %7, align 8, !tbaa !11
  %19 = icmp ne i64 %17, %18
  br i1 %19, label %20, label %28

20:                                               ; preds = %3
  call void @llvm.lifetime.start.p0(i64 1024, ptr %9) #10
  %21 = getelementptr inbounds [1024 x i8], ptr %9, i64 0, i64 0
  %22 = load i64, ptr %7, align 8, !tbaa !11
  %23 = load i64, ptr %8, align 8, !tbaa !11
  %24 = call i32 (ptr, i64, ptr, ...) @snprintf(ptr noundef %21, i64 noundef 1024, ptr noundef @.str.4, i64 noundef %22, i64 noundef %23) #10
  %25 = load i64, ptr @epos, align 8, !tbaa !11
  %26 = getelementptr inbounds [1024 x i8], ptr %9, i64 0, i64 0
  %27 = call i32 (ptr, i64, ptr, ...) @snprintf(ptr noundef @error, i64 noundef 1044, ptr noundef @.str.2, i64 noundef %25, ptr noundef %26) #10
  call void @llvm.lifetime.end.p0(i64 1024, ptr %9) #10
  store i32 0, ptr %4, align 4
  store i32 1, ptr %10, align 4
  br label %29

28:                                               ; preds = %3
  store i32 1, ptr %4, align 4
  store i32 1, ptr %10, align 4
  br label %29

29:                                               ; preds = %28, %20
  call void @llvm.lifetime.end.p0(i64 8, ptr %8) #10
  %30 = load i32, ptr %4, align 4
  ret i32 %30
}

; Function Attrs: nounwind uwtable
define dso_local i32 @readString(ptr noundef %0, ptr noundef %1) #0 {
  %3 = alloca i32, align 4
  %4 = alloca ptr, align 8
  %5 = alloca ptr, align 8
  %6 = alloca i64, align 8
  %7 = alloca i32, align 4
  %8 = alloca [1024 x i8], align 16
  store ptr %0, ptr %4, align 8, !tbaa !15
  store ptr %1, ptr %5, align 8, !tbaa !19
  call void @llvm.lifetime.start.p0(i64 8, ptr %6) #10
  %9 = load ptr, ptr %5, align 8, !tbaa !19
  store ptr null, ptr %9, align 8, !tbaa !5
  %10 = load ptr, ptr %4, align 8, !tbaa !15
  %11 = call i32 @readLong(ptr noundef %10, i8 noundef signext 36, ptr noundef %6)
  %12 = icmp ne i32 %11, 0
  br i1 %12, label %14, label %13

13:                                               ; preds = %2
  store i32 0, ptr %3, align 4
  store i32 1, ptr %7, align 4
  br label %61

14:                                               ; preds = %2
  %15 = load i64, ptr %6, align 8, !tbaa !11
  %16 = icmp slt i64 %15, 0
  br i1 %16, label %20, label %17

17:                                               ; preds = %14
  %18 = load i64, ptr %6, align 8, !tbaa !11
  %19 = icmp sgt i64 %18, 9223372036854775805
  br i1 %19, label %20, label %27

20:                                               ; preds = %17, %14
  call void @llvm.lifetime.start.p0(i64 1024, ptr %8) #10
  %21 = getelementptr inbounds [1024 x i8], ptr %8, i64 0, i64 0
  %22 = load i64, ptr %6, align 8, !tbaa !11
  %23 = call i32 (ptr, i64, ptr, ...) @snprintf(ptr noundef %21, i64 noundef 1024, ptr noundef @.str.5, i64 noundef %22) #10
  %24 = load i64, ptr @epos, align 8, !tbaa !11
  %25 = getelementptr inbounds [1024 x i8], ptr %8, i64 0, i64 0
  %26 = call i32 (ptr, i64, ptr, ...) @snprintf(ptr noundef @error, i64 noundef 1044, ptr noundef @.str.2, i64 noundef %24, ptr noundef %25) #10
  call void @llvm.lifetime.end.p0(i64 1024, ptr %8) #10
  store i32 0, ptr %3, align 4
  store i32 1, ptr %7, align 4
  br label %61

27:                                               ; preds = %17
  %28 = load i64, ptr %6, align 8, !tbaa !11
  %29 = add nsw i64 %28, 2
  store i64 %29, ptr %6, align 8, !tbaa !11
  %30 = load i64, ptr %6, align 8, !tbaa !11
  %31 = call noalias ptr @zmalloc(i64 noundef %30) #11
  %32 = load ptr, ptr %5, align 8, !tbaa !19
  store ptr %31, ptr %32, align 8, !tbaa !5
  %33 = load ptr, ptr %4, align 8, !tbaa !15
  %34 = load ptr, ptr %5, align 8, !tbaa !19
  %35 = load ptr, ptr %34, align 8, !tbaa !5
  %36 = load i64, ptr %6, align 8, !tbaa !11
  %37 = call i32 @readBytes(ptr noundef %33, ptr noundef %35, i64 noundef %36)
  %38 = icmp ne i32 %37, 0
  br i1 %38, label %43, label %39

39:                                               ; preds = %27
  %40 = load ptr, ptr %5, align 8, !tbaa !19
  %41 = load ptr, ptr %40, align 8, !tbaa !5
  call void @zfree(ptr noundef %41)
  %42 = load ptr, ptr %5, align 8, !tbaa !19
  store ptr null, ptr %42, align 8, !tbaa !5
  store i32 0, ptr %3, align 4
  store i32 1, ptr %7, align 4
  br label %61

43:                                               ; preds = %27
  %44 = load ptr, ptr %5, align 8, !tbaa !19
  %45 = load ptr, ptr %44, align 8, !tbaa !5
  %46 = load i64, ptr %6, align 8, !tbaa !11
  %47 = getelementptr inbounds i8, ptr %45, i64 %46
  %48 = getelementptr inbounds i8, ptr %47, i64 -2
  %49 = call i32 @consumeNewline(ptr noundef %48)
  %50 = icmp ne i32 %49, 0
  br i1 %50, label %55, label %51

51:                                               ; preds = %43
  %52 = load ptr, ptr %5, align 8, !tbaa !19
  %53 = load ptr, ptr %52, align 8, !tbaa !5
  call void @zfree(ptr noundef %53)
  %54 = load ptr, ptr %5, align 8, !tbaa !19
  store ptr null, ptr %54, align 8, !tbaa !5
  store i32 0, ptr %3, align 4
  store i32 1, ptr %7, align 4
  br label %61

55:                                               ; preds = %43
  %56 = load ptr, ptr %5, align 8, !tbaa !19
  %57 = load ptr, ptr %56, align 8, !tbaa !5
  %58 = load i64, ptr %6, align 8, !tbaa !11
  %59 = sub nsw i64 %58, 2
  %60 = getelementptr inbounds i8, ptr %57, i64 %59
  store i8 0, ptr %60, align 1, !tbaa !10
  store i32 1, ptr %3, align 4
  store i32 1, ptr %7, align 4
  br label %61

61:                                               ; preds = %55, %51, %39, %20, %13
  call void @llvm.lifetime.end.p0(i64 8, ptr %6) #10
  %62 = load i32, ptr %3, align 4
  ret i32 %62
}