; Function Attrs: nounwind uwtable
define dso_local range(i32 0, 2) i32 @readString(ptr noundef captures(none) %0, ptr noundef captures(none) initializes((0, 8)) %1) local_unnamed_addr #4 {
  %3 = alloca [1024 x i8], align 16
  %4 = alloca [1024 x i8], align 16
  %5 = alloca i64, align 8
  %6 = alloca [1024 x i8], align 16
  call void @llvm.lifetime.start.p0(i64 8, ptr nonnull %5) #16
  store ptr null, ptr %1, align 8, !tbaa !12
  %7 = call i32 @readLong(ptr noundef %0, i8 noundef signext 36, ptr noundef nonnull %5)
  %.not = icmp eq i32 %7, 0
  br i1 %.not, label %43, label %8

8:                                                ; preds = %2
  %9 = load i64, ptr %5, align 8, !tbaa !8
  %or.cond = icmp ugt i64 %9, 9223372036854775805
  br i1 %or.cond, label %10, label %14

10:                                               ; preds = %8
  call void @llvm.lifetime.start.p0(i64 1024, ptr nonnull %6) #16
  %11 = call i32 (ptr, i64, ptr, ...) @snprintf(ptr noundef nonnull dereferenceable(1) %6, i64 noundef 1024, ptr noundef nonnull @.str.5, i64 noundef %9) #16
  %12 = load i64, ptr @epos, align 8, !tbaa !8
  %13 = call i32 (ptr, i64, ptr, ...) @snprintf(ptr noundef nonnull dereferenceable(1) @error, i64 noundef 1044, ptr noundef nonnull @.str.2, i64 noundef %12, ptr noundef nonnull %6) #16
  call void @llvm.lifetime.end.p0(i64 1024, ptr nonnull %6) #16
  br label %43

14:                                               ; preds = %8
  %15 = add nuw nsw i64 %9, 2
  %16 = tail call noalias ptr @zmalloc(i64 noundef %15) #17
  store ptr %16, ptr %1, align 8, !tbaa !12
  %17 = tail call i64 @ftello64(ptr noundef %0)
  store i64 %17, ptr @epos, align 8, !tbaa !8
  %18 = tail call i64 @fread(ptr noundef %16, i64 noundef 1, i64 noundef %15, ptr noundef %0)
  %.not.i = icmp eq i64 %18, %15
  br i1 %.not.i, label %readBytes.exit, label %19

19:                                               ; preds = %14
  call void @llvm.lifetime.start.p0(i64 1024, ptr nonnull %4) #16
  %20 = call i32 (ptr, i64, ptr, ...) @snprintf(ptr noundef nonnull dereferenceable(1) %4, i64 noundef 1024, ptr noundef nonnull @.str.4, i64 noundef %15, i64 noundef %18) #16
  %21 = load i64, ptr @epos, align 8, !tbaa !8
  %22 = call i32 (ptr, i64, ptr, ...) @snprintf(ptr noundef nonnull dereferenceable(1) @error, i64 noundef 1044, ptr noundef nonnull @.str.2, i64 noundef %21, ptr noundef nonnull %4) #16
  call void @llvm.lifetime.end.p0(i64 1024, ptr nonnull %4) #16
  %23 = load ptr, ptr %1, align 8, !tbaa !12
  call void @zfree(ptr noundef %23) #16
  store ptr null, ptr %1, align 8, !tbaa !12
  br label %43

readBytes.exit:                                   ; preds = %14
  %24 = load ptr, ptr %1, align 8, !tbaa !12
  %25 = getelementptr inbounds nuw i8, ptr %24, i64 %9
  %26 = load i8, ptr %25, align 1
  %.not3.i = icmp eq i8 %26, 13
  br i1 %.not3.i, label %.tail.i, label %readBytes.exit._crit_edge

readBytes.exit._crit_edge:                        ; preds = %readBytes.exit
  %.phi.trans.insert = getelementptr inbounds nuw i8, ptr %25, i64 1
  %.pre = load i8, ptr %.phi.trans.insert, align 1, !tbaa !5
  br label %31

.tail.i:                                          ; preds = %readBytes.exit
  %27 = getelementptr i8, ptr %24, i64 %15
  %28 = getelementptr inbounds i8, ptr %27, i64 -1
  %29 = load i8, ptr %28, align 1
  %30 = icmp eq i8 %29, 10
  br i1 %30, label %39, label %31

31:                                               ; preds = %readBytes.exit._crit_edge, %.tail.i
  %32 = phi i8 [ %.pre, %readBytes.exit._crit_edge ], [ %29, %.tail.i ]
  call void @llvm.lifetime.start.p0(i64 1024, ptr nonnull %3) #16
  %33 = sext i8 %26 to i32
  %34 = sext i8 %32 to i32
  %35 = call i32 (ptr, i64, ptr, ...) @snprintf(ptr noundef nonnull dereferenceable(1) %3, i64 noundef 1024, ptr noundef nonnull @.str.1, i32 noundef %33, i32 noundef %34) #16
  %36 = load i64, ptr @epos, align 8, !tbaa !8
  %37 = call i32 (ptr, i64, ptr, ...) @snprintf(ptr noundef nonnull dereferenceable(1) @error, i64 noundef 1044, ptr noundef nonnull @.str.2, i64 noundef %36, ptr noundef nonnull %3) #16
  call void @llvm.lifetime.end.p0(i64 1024, ptr nonnull %3) #16
  %38 = load ptr, ptr %1, align 8, !tbaa !12
  call void @zfree(ptr noundef %38) #16
  store ptr null, ptr %1, align 8, !tbaa !12
  br label %43

39:                                               ; preds = %.tail.i
  %40 = load i64, ptr @line, align 8, !tbaa !10
  %41 = add nsw i64 %40, 1
  store i64 %41, ptr @line, align 8, !tbaa !10
  %42 = getelementptr i8, ptr %24, i64 %9
  store i8 0, ptr %42, align 1, !tbaa !5
  br label %43

43:                                               ; preds = %2, %39, %31, %19, %10
  %.0 = phi i32 [ 0, %10 ], [ 1, %39 ], [ 0, %31 ], [ 0, %19 ], [ 0, %2 ]
  call void @llvm.lifetime.end.p0(i64 8, ptr nonnull %5) #16
  ret i32 %.0
}